target datalayout = "e-m:e-p270:32:32-p271:32:32-p272:64:64-i64:64-i128:128-f80:128-n8:16:32:64-S128"
target triple = "x86_64-pc-linux-gnu"

%"struct.llvm::AArch64_IMM::ImmInsnModel" = type { i32, i64, i64 }

; Function Attrs: mustprogress nounwind uwtable
define linkonce_odr hidden noundef i32 @_ZN4llvm6detail20TrailingZerosCounterImLm8EE5countEm(i64 noundef %0) #0 comdat align 2 {
  %2 = alloca i32, align 4
  %3 = alloca i64, align 8
  store i64 %0, ptr %3, align 8
  %4 = load i64, ptr %3, align 8
  %5 = icmp eq i64 %4, 0
  br i1 %5, label %6, label %7

6:                                                ; preds = %1
  store i32 64, ptr %2, align 4
  br label %11

7:                                                ; preds = %1
  %8 = load i64, ptr %3, align 8
  %9 = call i64 @llvm.cttz.i64(i64 %8, i1 true)
  %10 = trunc i64 %9 to i32
  store i32 %10, ptr %2, align 4
  br label %11

11:                                               ; preds = %7, %6
  %12 = load i32, ptr %2, align 4
  ret i32 %12
}

; Function Attrs: mustprogress nounwind uwtable
define linkonce_odr hidden noundef i32 @_ZN4llvm6detail19LeadingZerosCounterImLm8EE5countEm(i64 noundef %0) #0 comdat align 2 {
  %2 = alloca i32, align 4
  %3 = alloca i64, align 8
  store i64 %0, ptr %3, align 8
  %4 = load i64, ptr %3, align 8
  %5 = icmp eq i64 %4, 0
  br i1 %5, label %6, label %7

6:                                                ; preds = %1
  store i32 64, ptr %2, align 4
  br label %11

7:                                                ; preds = %1
  %8 = load i64, ptr %3, align 8
  %9 = call i64 @llvm.ctlz.i64(i64 %8, i1 true)
  %10 = trunc i64 %9 to i32
  store i32 %10, ptr %2, align 4
  br label %11

11:                                               ; preds = %7, %6
  %12 = load i32, ptr %2, align 4
  ret i32 %12
}

; Function Attrs: mustprogress nounwind uwtable
define linkonce_odr hidden void @_ZN4llvm23SmallVectorTemplateBaseINS_11AArch64_IMM12ImmInsnModelELb1EE8pop_backEv(ptr noundef nonnull align 8 dereferenceable(16) %0) #0 comdat align 2 {
  %2 = alloca ptr, align 8
  store ptr %0, ptr %2, align 8
  %3 = load ptr, ptr %2, align 8
  %4 = call noundef i64 @_ZNK4llvm15SmallVectorBaseIjE4sizeEv(ptr noundef nonnull align 8 dereferenceable(16) %3)
  %5 = sub i64 %4, 1
  call void @_ZN4llvm15SmallVectorBaseIjE8set_sizeEm(ptr noundef nonnull align 8 dereferenceable(16) %3, i64 noundef %5)
  ret void
}

; Function Attrs: mustprogress nounwind uwtable
define internal noundef i32 @_ZN4llvm10AArch64_AML13getShifterImmENS0_15ShiftExtendTypeEj(i32 noundef %0, i32 noundef %1) #0 {
  %3 = alloca i32, align 4
  %4 = alloca i32, align 4
  %5 = alloca i32, align 4
  store i32 %0, ptr %3, align 4
  store i32 %1, ptr %4, align 4
  store i32 0, ptr %5, align 4
  %6 = load i32, ptr %3, align 4
  switch i32 %6, label %7 [
    i32 0, label %8
    i32 1, label %9
    i32 2, label %10
    i32 3, label %11
    i32 4, label %12
  ]

7:                                                ; preds = %2
  unreachable

8:                                                ; preds = %2
  store i32 0, ptr %5, align 4
  br label %13

9:                                                ; preds = %2
  store i32 1, ptr %5, align 4
  br label %13

10:                                               ; preds = %2
  store i32 2, ptr %5, align 4
  br label %13

11:                                               ; preds = %2
  store i32 3, ptr %5, align 4
  br label %13

12:                                               ; preds = %2
  store i32 4, ptr %5, align 4
  br label %13

13:                                               ; preds = %12, %11, %10, %9, %8
  %14 = load i32, ptr %5, align 4
  %15 = shl i32 %14, 6
  %16 = load i32, ptr %4, align 4
  %17 = and i32 %16, 63
  %18 = or i32 %15, %17
  ret i32 %18
}

; Function Attrs: mustprogress nounwind uwtable
define linkonce_odr noundef i32 @_ZN4llvm11countr_zeroImEEiT_(i64 noundef %0) #0 comdat {
  %2 = alloca i64, align 8
  store i64 %0, ptr %2, align 8
  %3 = load i64, ptr %2, align 8
  %4 = call noundef i32 @_ZN4llvm6detail20TrailingZerosCounterImLm8EE5countEm(i64 noundef %3)
  ret i32 %4
}

; Function Attrs: mustprogress nounwind uwtable
define linkonce_odr noundef i32 @_ZN4llvm11countl_zeroImEEiT_(i64 noundef %0) #0 comdat {
  %2 = alloca i64, align 8
  store i64 %0, ptr %2, align 8
  %3 = load i64, ptr %2, align 8
  %4 = call noundef i32 @_ZN4llvm6detail19LeadingZerosCounterImLm8EE5countEm(i64 noundef %3)
  ret i32 %4
}

; Function Attrs: mustprogress nounwind uwtable
define internal void @_ZL18expandMOVImmSimplemjjjRN4llvm15SmallVectorImplINS_11AArch64_IMM12ImmInsnModelEEE(i64 noundef %0, i32 noundef %1, i32 noundef %2, i32 noundef %3, ptr noundef nonnull align 8 dereferenceable(16) %4) #0 {
  %6 = alloca i64, align 8
  %7 = alloca i32, align 4
  %8 = alloca i32, align 4
  %9 = alloca i32, align 4
  %10 = alloca ptr, align 8
  %11 = alloca i32, align 4
  %12 = alloca i8, align 1
  %13 = alloca i32, align 4
  %14 = alloca i32, align 4
  %15 = alloca i32, align 4
  %16 = alloca i32, align 4
  %17 = alloca i32, align 4
  %18 = alloca i32, align 4
  %19 = alloca %"struct.llvm::AArch64_IMM::ImmInsnModel", align 8
  %20 = alloca i32, align 4
  %21 = alloca %"struct.llvm::AArch64_IMM::ImmInsnModel", align 8
  %22 = alloca i32, align 4
  %23 = alloca %"struct.llvm::AArch64_IMM::ImmInsnModel", align 8
  store i64 %0, ptr %6, align 8
  store i32 %1, ptr %7, align 4
  store i32 %2, ptr %8, align 4
  store i32 %3, ptr %9, align 4
  store ptr %4, ptr %10, align 8
  store i32 65535, ptr %11, align 4
  store i8 0, ptr %12, align 1
  %24 = load i32, ptr %8, align 4
  %25 = load i32, ptr %9, align 4
  %26 = icmp ugt i32 %24, %25
  br i1 %26, label %27, label %30

27:                                               ; preds = %5
  store i8 1, ptr %12, align 1
  %28 = load i64, ptr %6, align 8
  %29 = xor i64 %28, -1
  store i64 %29, ptr %6, align 8
  br label %30

30:                                               ; preds = %27, %5
  %31 = load i32, ptr %7, align 4
  %32 = icmp eq i32 %31, 32
  br i1 %32, label %33, label %39

33:                                               ; preds = %30
  %34 = load i64, ptr %6, align 8
  %35 = and i64 %34, 4294967295
  store i64 %35, ptr %6, align 8
  %36 = load i8, ptr %12, align 1
  %37 = trunc i8 %36 to i1
  %38 = select i1 %37, i32 4777, i32 4791
  store i32 %38, ptr %13, align 4
  br label %43

39:                                               ; preds = %30
  %40 = load i8, ptr %12, align 1
  %41 = trunc i8 %40 to i1
  %42 = select i1 %41, i32 4778, i32 4792
  store i32 %42, ptr %13, align 4
  br label %43

43:                                               ; preds = %39, %33
  store i32 0, ptr %14, align 4
  store i32 0, ptr %15, align 4
  %44 = load i64, ptr %6, align 8
  %45 = icmp ne i64 %44, 0
  br i1 %45, label %46, label %58

46:                                               ; preds = %43
  %47 = load i64, ptr %6, align 8
  %48 = call noundef i32 @_ZN4llvm11countl_zeroImEEiT_(i64 noundef %47)
  store i32 %48, ptr %16, align 4
  %49 = load i64, ptr %6, align 8
  %50 = call noundef i32 @_ZN4llvm11countr_zeroImEEiT_(i64 noundef %49)
  store i32 %50, ptr %17, align 4
  %51 = load i32, ptr %17, align 4
  %52 = udiv i32 %51, 16
  %53 = mul i32 %52, 16
  store i32 %53, ptr %14, align 4
  %54 = load i32, ptr %16, align 4
  %55 = sub i32 63, %54
  %56 = udiv i32 %55, 16
  %57 = mul i32 %56, 16
  store i32 %57, ptr %15, align 4
  br label %58

58:                                               ; preds = %46, %43
  %59 = load i64, ptr %6, align 8
  %60 = load i32, ptr %14, align 4
  %61 = zext i32 %60 to i64
  %62 = lshr i64 %59, %61
  %63 = and i64 %62, 65535
  %64 = trunc i64 %63 to i32
  store i32 %64, ptr %18, align 4
  %65 = load ptr, ptr %10, align 8
  %66 = getelementptr inbounds nuw %"struct.llvm::AArch64_IMM::ImmInsnModel", ptr %19, i32 0, i32 0
  %67 = load i32, ptr %13, align 4
  store i32 %67, ptr %66, align 8
  %68 = getelementptr inbounds nuw %"struct.llvm::AArch64_IMM::ImmInsnModel", ptr %19, i32 0, i32 1
  %69 = load i32, ptr %18, align 4
  %70 = zext i32 %69 to i64
  store i64 %70, ptr %68, align 8
  %71 = getelementptr inbounds nuw %"struct.llvm::AArch64_IMM::ImmInsnModel", ptr %19, i32 0, i32 2
  %72 = load i32, ptr %14, align 4
  %73 = call noundef i32 @_ZN4llvm10AArch64_AML13getShifterImmENS0_15ShiftExtendTypeEj(i32 noundef 0, i32 noundef %72)
  %74 = zext i32 %73 to i64
  store i64 %74, ptr %71, align 8
  call void @_ZN4llvm23SmallVectorTemplateBaseINS_11AArch64_IMM12ImmInsnModelELb1EE9push_backERKS2_(ptr noundef nonnull align 8 dereferenceable(16) %65, ptr noundef nonnull align 8 dereferenceable(24) %19)
  %75 = load i32, ptr %14, align 4
  %76 = load i32, ptr %15, align 4
  %77 = icmp eq i32 %75, %76
  br i1 %77, label %78, label %79

78:                                               ; preds = %58
  br label %146

79:                                               ; preds = %58
  %80 = load i8, ptr %12, align 1
  %81 = trunc i8 %80 to i1
  br i1 %81, label %82, label %85

82:                                               ; preds = %79
  %83 = load i64, ptr %6, align 8
  %84 = xor i64 %83, -1
  store i64 %84, ptr %6, align 8
  br label %85

85:                                               ; preds = %82, %79
  %86 = load i32, ptr %7, align 4
  %87 = icmp eq i32 %86, 32
  %88 = select i1 %87, i32 4775, i32 4776
  store i32 %88, ptr %20, align 4
  br label %89

89:                                               ; preds = %108, %107, %85
  %90 = load i32, ptr %14, align 4
  %91 = load i32, ptr %15, align 4
  %92 = icmp ult i32 %90, %91
  br i1 %92, label %93, label %119

93:                                               ; preds = %89
  %94 = load i32, ptr %14, align 4
  %95 = add i32 %94, 16
  store i32 %95, ptr %14, align 4
  %96 = load i64, ptr %6, align 8
  %97 = load i32, ptr %14, align 4
  %98 = zext i32 %97 to i64
  %99 = lshr i64 %96, %98
  %100 = and i64 %99, 65535
  %101 = trunc i64 %100 to i32
  store i32 %101, ptr %18, align 4
  %102 = load i32, ptr %18, align 4
  %103 = load i8, ptr %12, align 1
  %104 = trunc i8 %103 to i1
  %105 = select i1 %104, i32 65535, i32 0
  %106 = icmp eq i32 %102, %105
  br i1 %106, label %107, label %108

107:                                              ; preds = %93
  br label %89, !llvm.loop !7

108:                                              ; preds = %93
  %109 = load ptr, ptr %10, align 8
  %110 = getelementptr inbounds nuw %"struct.llvm::AArch64_IMM::ImmInsnModel", ptr %21, i32 0, i32 0
  %111 = load i32, ptr %20, align 4
  store i32 %111, ptr %110, align 8
  %112 = getelementptr inbounds nuw %"struct.llvm::AArch64_IMM::ImmInsnModel", ptr %21, i32 0, i32 1
  %113 = load i32, ptr %18, align 4
  %114 = zext i32 %113 to i64
  store i64 %114, ptr %112, align 8
  %115 = getelementptr inbounds nuw %"struct.llvm::AArch64_IMM::ImmInsnModel", ptr %21, i32 0, i32 2
  %116 = load i32, ptr %14, align 4
  %117 = call noundef i32 @_ZN4llvm10AArch64_AML13getShifterImmENS0_15ShiftExtendTypeEj(i32 noundef 0, i32 noundef %116)
  %118 = zext i32 %117 to i64
  store i64 %118, ptr %115, align 8
  call void @_ZN4llvm23SmallVectorTemplateBaseINS_11AArch64_IMM12ImmInsnModelELb1EE9push_backERKS2_(ptr noundef nonnull align 8 dereferenceable(16) %109, ptr noundef nonnull align 8 dereferenceable(24) %21)
  br label %89, !llvm.loop !7

119:                                              ; preds = %89
  %120 = load ptr, ptr %10, align 8
  %121 = call noundef i64 @_ZNK4llvm15SmallVectorBaseIjE4sizeEv(ptr noundef nonnull align 8 dereferenceable(16) %120)
  %122 = icmp ugt i64 %121, 2
  br i1 %122, label %123, label %146

123:                                              ; preds = %119
  %124 = load i64, ptr %6, align 8
  %125 = lshr i64 %124, 32
  %126 = load i64, ptr %6, align 8
  %127 = and i64 %126, 4294967295
  %128 = icmp eq i64 %125, %127
  br i1 %128, label %129, label %146

129:                                              ; preds = %123
  %130 = load ptr, ptr %10, align 8
  %131 = call noundef i64 @_ZNK4llvm15SmallVectorBaseIjE4sizeEv(ptr noundef nonnull align 8 dereferenceable(16) %130)
  %132 = trunc i64 %131 to i32
  store i32 %132, ptr %22, align 4
  br label %133

133:                                              ; preds = %138, %129
  %134 = load i32, ptr %22, align 4
  %135 = icmp sgt i32 %134, 2
  br i1 %135, label %136, label %141

136:                                              ; preds = %133
  %137 = load ptr, ptr %10, align 8
  call void @_ZN4llvm23SmallVectorTemplateBaseINS_11AArch64_IMM12ImmInsnModelELb1EE8pop_backEv(ptr noundef nonnull align 8 dereferenceable(16) %137)
  br label %138

138:                                              ; preds = %136
  %139 = load i32, ptr %22, align 4
  %140 = add nsw i32 %139, -1
  store i32 %140, ptr %22, align 4
  br label %133, !llvm.loop !8

141:                                              ; preds = %133
  %142 = load ptr, ptr %10, align 8
  %143 = getelementptr inbounds nuw %"struct.llvm::AArch64_IMM::ImmInsnModel", ptr %23, i32 0, i32 0
  store i32 4877, ptr %143, align 8
  %144 = getelementptr inbounds nuw %"struct.llvm::AArch64_IMM::ImmInsnModel", ptr %23, i32 0, i32 1
  store i64 0, ptr %144, align 8
  %145 = getelementptr inbounds nuw %"struct.llvm::AArch64_IMM::ImmInsnModel", ptr %23, i32 0, i32 2
  store i64 32, ptr %145, align 8
  call void @_ZN4llvm23SmallVectorTemplateBaseINS_11AArch64_IMM12ImmInsnModelELb1EE9push_backERKS2_(ptr noundef nonnull align 8 dereferenceable(16) %142, ptr noundef nonnull align 8 dereferenceable(24) %23)
  br label %146

146:                                              ; preds = %141, %123, %119, %78
  ret void
}