; Function Attrs: mustprogress nounwind uwtable
define internal fastcc void @_ZL18expandMOVImmSimplemjjjRN4llvm15SmallVectorImplINS_11AArch64_IMM12ImmInsnModelEEE(i64 noundef %0, i32 noundef %1, i32 noundef %2, i32 noundef %3, ptr noundef nonnull align 8 dereferenceable(16) %4) unnamed_addr #0 {
  %6 = alloca %"struct.llvm::AArch64_IMM::ImmInsnModel", align 8
  %7 = alloca %"struct.llvm::AArch64_IMM::ImmInsnModel", align 8
  %8 = alloca %"struct.llvm::AArch64_IMM::ImmInsnModel", align 8
  %9 = icmp ugt i32 %2, %3
  %10 = sext i1 %9 to i64
  %spec.select = xor i64 %0, %10
  %11 = icmp eq i32 %1, 32
  %12 = and i64 %spec.select, 4294967295
  %13 = select i1 %9, i32 4777, i32 4791
  %14 = select i1 %9, i32 4778, i32 4792
  %.043 = select i1 %11, i32 %13, i32 %14
  %.1 = select i1 %11, i64 %12, i64 %spec.select
  %.not = icmp eq i64 %.1, 0
  br i1 %.not, label %23, label %15

15:                                               ; preds = %5
  %16 = tail call range(i64 0, 65) i64 @llvm.ctlz.i64(i64 %.1, i1 true)
  %17 = trunc nuw nsw i64 %16 to i32
  %18 = tail call range(i64 0, 65) i64 @llvm.cttz.i64(i64 %.1, i1 true)
  %19 = trunc nuw nsw i64 %18 to i32
  %20 = and i32 %19, 48
  %21 = and i32 %17, 48
  %22 = xor i32 %21, 48
  br label %23

23:                                               ; preds = %15, %5
  %.045 = phi i32 [ %20, %15 ], [ 0, %5 ]
  %.044 = phi i32 [ %22, %15 ], [ 0, %5 ]
  %24 = zext nneg i32 %.045 to i64
  %25 = lshr i64 %.1, %24
  %26 = and i64 %25, 65535
  store i32 %.043, ptr %6, align 8
  %27 = getelementptr inbounds nuw i8, ptr %6, i64 8
  store i64 %26, ptr %27, align 8
  %28 = getelementptr inbounds nuw i8, ptr %6, i64 16
  store i64 %24, ptr %28, align 8
  call void @_ZN4llvm23SmallVectorTemplateBaseINS_11AArch64_IMM12ImmInsnModelELb1EE9push_backERKS2_(ptr noundef nonnull align 8 dereferenceable(16) %4, ptr noundef nonnull align 8 dereferenceable(24) %6)
  %29 = icmp eq i32 %.045, %.044
  br i1 %29, label %62, label %30

30:                                               ; preds = %23
  %spec.select48 = xor i64 %.1, %10
  %31 = select i1 %11, i32 4775, i32 4776
  %32 = icmp ult i32 %.045, %.044
  br i1 %32, label %.lr.ph, label %._crit_edge

.lr.ph:                                           ; preds = %30
  %33 = select i1 %9, i32 65535, i32 0
  %34 = getelementptr inbounds nuw i8, ptr %7, i64 8
  %35 = getelementptr inbounds nuw i8, ptr %7, i64 16
  %36 = zext nneg i32 %.044 to i64
  br label %37

37:                                               ; preds = %.lr.ph, %.backedge
  %indvars.iv = phi i64 [ %24, %.lr.ph ], [ %indvars.iv.next, %.backedge ]
  %indvars.iv.next = add nuw nsw i64 %indvars.iv, 16
  %38 = lshr i64 %spec.select48, %indvars.iv.next
  %39 = trunc i64 %38 to i32
  %40 = and i32 %39, 65535
  %41 = icmp eq i32 %40, %33
  br i1 %41, label %.backedge, label %42

42:                                               ; preds = %37
  store i32 %31, ptr %7, align 8
  %43 = and i64 %38, 65535
  store i64 %43, ptr %34, align 8
  %44 = and i64 %indvars.iv.next, 48
  store i64 %44, ptr %35, align 8
  call void @_ZN4llvm23SmallVectorTemplateBaseINS_11AArch64_IMM12ImmInsnModelELb1EE9push_backERKS2_(ptr noundef nonnull align 8 dereferenceable(16) %4, ptr noundef nonnull align 8 dereferenceable(24) %7)
  br label %.backedge

.backedge:                                        ; preds = %42, %37
  %45 = icmp ult i64 %indvars.iv.next, %36
  br i1 %45, label %37, label %._crit_edge, !llvm.loop !9

._crit_edge:                                      ; preds = %.backedge, %30
  %46 = call noundef i64 @_ZNK4llvm15SmallVectorBaseIjE4sizeEv(ptr noundef nonnull align 8 dereferenceable(16) %4) #9
  %47 = icmp ugt i64 %46, 2
  br i1 %47, label %48, label %62

48:                                               ; preds = %._crit_edge
  %49 = lshr i64 %spec.select48, 32
  %50 = and i64 %spec.select48, 4294967295
  %51 = icmp eq i64 %49, %50
  br i1 %51, label %52, label %62

52:                                               ; preds = %48
  %53 = call noundef i64 @_ZNK4llvm15SmallVectorBaseIjE4sizeEv(ptr noundef nonnull align 8 dereferenceable(16) %4) #9
  %54 = trunc i64 %53 to i32
  %55 = icmp sgt i32 %54, 2
  br i1 %55, label %.lr.ph52, label %._crit_edge53

.lr.ph52:                                         ; preds = %52, %.lr.ph52
  %.050 = phi i32 [ %58, %.lr.ph52 ], [ %54, %52 ]
  %56 = call noundef i64 @_ZNK4llvm15SmallVectorBaseIjE4sizeEv(ptr noundef nonnull align 8 dereferenceable(16) %4) #9
  %57 = add i64 %56, -1
  call void @_ZN4llvm15SmallVectorBaseIjE8set_sizeEm(ptr noundef nonnull align 8 dereferenceable(16) %4, i64 noundef %57) #9
  %58 = add nsw i32 %.050, -1
  %59 = icmp ugt i32 %.050, 3
  br i1 %59, label %.lr.ph52, label %._crit_edge53, !llvm.loop !10

._crit_edge53:                                    ; preds = %.lr.ph52, %52
  store i32 4877, ptr %8, align 8
  %60 = getelementptr inbounds nuw i8, ptr %8, i64 8
  store i64 0, ptr %60, align 8
  %61 = getelementptr inbounds nuw i8, ptr %8, i64 16
  store i64 32, ptr %61, align 8
  call void @_ZN4llvm23SmallVectorTemplateBaseINS_11AArch64_IMM12ImmInsnModelELb1EE9push_backERKS2_(ptr noundef nonnull align 8 dereferenceable(16) %4, ptr noundef nonnull align 8 dereferenceable(24) %8)
  br label %62

62:                                               ; preds = %23, %._crit_edge53, %48, %._crit_edge
  ret void
}